target datalayout = "e-m:e-p270:32:32-p271:32:32-p272:64:64-i64:64-i128:128-f80:128-n8:16:32:64-S128"
target triple = "x86_64-pc-linux-gnu"

%struct.stbtt__buf = type { ptr, i32, i32 }
%struct.stbtt_fontinfo = type { ptr, ptr, i32, i32, i32, i32, i32, i32, i32, i32, i32, i32, i32, i32, %struct.stbtt__buf, %struct.stbtt__buf, %struct.stbtt__buf, %struct.stbtt__buf, %struct.stbtt__buf, %struct.stbtt__buf }

; Function Attrs: nounwind uwtable
define i32 @ttULONG(ptr noundef %0) #0 {
  %2 = alloca ptr, align 8
  store ptr %0, ptr %2, align 8, !tbaa !25
  %3 = load ptr, ptr %2, align 8, !tbaa !25
  %4 = getelementptr inbounds i8, ptr %3, i64 0
  %5 = load i8, ptr %4, align 1, !tbaa !13
  %6 = zext i8 %5 to i32
  %7 = shl i32 %6, 24
  %8 = load ptr, ptr %2, align 8, !tbaa !25
  %9 = getelementptr inbounds i8, ptr %8, i64 1
  %10 = load i8, ptr %9, align 1, !tbaa !13
  %11 = zext i8 %10 to i32
  %12 = shl i32 %11, 16
  %13 = add nsw i32 %7, %12
  %14 = load ptr, ptr %2, align 8, !tbaa !25
  %15 = getelementptr inbounds i8, ptr %14, i64 2
  %16 = load i8, ptr %15, align 1, !tbaa !13
  %17 = zext i8 %16 to i32
  %18 = shl i32 %17, 8
  %19 = add nsw i32 %13, %18
  %20 = load ptr, ptr %2, align 8, !tbaa !25
  %21 = getelementptr inbounds i8, ptr %20, i64 3
  %22 = load i8, ptr %21, align 1, !tbaa !13
  %23 = zext i8 %22 to i32
  %24 = add nsw i32 %19, %23
  ret i32 %24
}

; Function Attrs: nounwind uwtable
define i32 @stbtt_GetGlyphSVG(ptr noundef %0, i32 noundef %1, ptr noundef %2) #0 {
  %4 = alloca i32, align 4
  %5 = alloca ptr, align 8
  %6 = alloca i32, align 4
  %7 = alloca ptr, align 8
  %8 = alloca ptr, align 8
  %9 = alloca ptr, align 8
  %10 = alloca i32, align 4
  store ptr %0, ptr %5, align 8, !tbaa !28
  store i32 %1, ptr %6, align 4, !tbaa !14
  store ptr %2, ptr %7, align 8, !tbaa !102
  call void @llvm.lifetime.start.p0(i64 8, ptr %8) #8
  %11 = load ptr, ptr %5, align 8, !tbaa !28
  %12 = getelementptr inbounds nuw %struct.stbtt_fontinfo, ptr %11, i32 0, i32 1
  %13 = load ptr, ptr %12, align 8, !tbaa !32
  store ptr %13, ptr %8, align 8, !tbaa !25
  call void @llvm.lifetime.start.p0(i64 8, ptr %9) #8
  %14 = load ptr, ptr %5, align 8, !tbaa !28
  %15 = getelementptr inbounds nuw %struct.stbtt_fontinfo, ptr %14, i32 0, i32 11
  %16 = load i32, ptr %15, align 4, !tbaa !30
  %17 = icmp eq i32 %16, 0
  br i1 %17, label %18, label %19

18:                                               ; preds = %3
  store i32 0, ptr %4, align 4
  store i32 1, ptr %10, align 4
  br label %42

19:                                               ; preds = %3
  %20 = load ptr, ptr %5, align 8, !tbaa !28
  %21 = load i32, ptr %6, align 4, !tbaa !14
  %22 = call ptr @stbtt_FindSVGDoc(ptr noundef %20, i32 noundef %21)
  store ptr %22, ptr %9, align 8, !tbaa !25
  %23 = load ptr, ptr %9, align 8, !tbaa !25
  %24 = icmp ne ptr %23, null
  br i1 %24, label %25, label %41

25:                                               ; preds = %19
  %26 = load ptr, ptr %8, align 8, !tbaa !25
  %27 = load ptr, ptr %5, align 8, !tbaa !28
  %28 = getelementptr inbounds nuw %struct.stbtt_fontinfo, ptr %27, i32 0, i32 11
  %29 = load i32, ptr %28, align 4, !tbaa !30
  %30 = sext i32 %29 to i64
  %31 = getelementptr inbounds i8, ptr %26, i64 %30
  %32 = load ptr, ptr %9, align 8, !tbaa !25
  %33 = getelementptr inbounds i8, ptr %32, i64 4
  %34 = call i32 @ttULONG(ptr noundef %33)
  %35 = zext i32 %34 to i64
  %36 = getelementptr inbounds nuw i8, ptr %31, i64 %35
  %37 = load ptr, ptr %7, align 8, !tbaa !102
  store ptr %36, ptr %37, align 8, !tbaa !25
  %38 = load ptr, ptr %9, align 8, !tbaa !25
  %39 = getelementptr inbounds i8, ptr %38, i64 8
  %40 = call i32 @ttULONG(ptr noundef %39)
  store i32 %40, ptr %4, align 4
  store i32 1, ptr %10, align 4
  br label %42

41:                                               ; preds = %19
  store i32 0, ptr %4, align 4
  store i32 1, ptr %10, align 4
  br label %42

42:                                               ; preds = %41, %25, %18
  call void @llvm.lifetime.end.p0(i64 8, ptr %9) #8
  call void @llvm.lifetime.end.p0(i64 8, ptr %8) #8
  %43 = load i32, ptr %4, align 4
  ret i32 %43
}

; Function Attrs: nounwind uwtable
define i32 @stbtt_GetCodepointSVG(ptr noundef %0, i32 noundef %1, ptr noundef %2) #0 {
  %4 = alloca ptr, align 8
  %5 = alloca i32, align 4
  %6 = alloca ptr, align 8
  store ptr %0, ptr %4, align 8, !tbaa !28
  store i32 %1, ptr %5, align 4, !tbaa !14
  store ptr %2, ptr %6, align 8, !tbaa !102
  %7 = load ptr, ptr %4, align 8, !tbaa !28
  %8 = load ptr, ptr %4, align 8, !tbaa !28
  %9 = load i32, ptr %5, align 4, !tbaa !14
  %10 = call i32 @stbtt_FindGlyphIndex(ptr noundef %8, i32 noundef %9)
  %11 = load ptr, ptr %6, align 8, !tbaa !102
  %12 = call i32 @stbtt_GetGlyphSVG(ptr noundef %7, i32 noundef %10, ptr noundef %11)
  ret i32 %12
}