; Function Attrs: nofree norecurse nosync nounwind memory(read, argmem: readwrite, inaccessiblemem: none) uwtable
define i32 @stbtt_GetCodepointSVG(ptr noundef captures(none) %0, i32 noundef %1, ptr noundef writeonly captures(none) %2) local_unnamed_addr #3 {
  %4 = tail call i32 @stbtt_FindGlyphIndex(ptr noundef %0, i32 noundef %1)
  %5 = getelementptr inbounds nuw i8, ptr %0, i64 8
  %6 = load ptr, ptr %5, align 8, !tbaa !23
  %7 = getelementptr inbounds nuw i8, ptr %0, i64 52
  %8 = load i32, ptr %7, align 4, !tbaa !21
  %9 = icmp eq i32 %8, 0
  br i1 %9, label %stbtt_GetGlyphSVG.exit, label %10

10:                                               ; preds = %3
  %11 = tail call ptr @stbtt_FindSVGDoc(ptr noundef nonnull %0, i32 noundef %4)
  %.not.i = icmp eq ptr %11, null
  br i1 %.not.i, label %stbtt_GetGlyphSVG.exit, label %12

12:                                               ; preds = %10
  %13 = load i32, ptr %7, align 4, !tbaa !21
  %14 = sext i32 %13 to i64
  %15 = getelementptr inbounds i8, ptr %6, i64 %14
  %16 = getelementptr inbounds nuw i8, ptr %11, i64 4
  %17 = load i8, ptr %16, align 1, !tbaa !12
  %18 = zext i8 %17 to i64
  %19 = shl nuw nsw i64 %18, 24
  %20 = getelementptr inbounds nuw i8, ptr %11, i64 5
  %21 = load i8, ptr %20, align 1, !tbaa !12
  %22 = zext i8 %21 to i64
  %23 = shl nuw nsw i64 %22, 16
  %24 = or disjoint i64 %23, %19
  %25 = getelementptr inbounds nuw i8, ptr %11, i64 6
  %26 = load i8, ptr %25, align 1, !tbaa !12
  %27 = zext i8 %26 to i64
  %28 = shl nuw nsw i64 %27, 8
  %29 = or disjoint i64 %24, %28
  %30 = getelementptr inbounds nuw i8, ptr %11, i64 7
  %31 = load i8, ptr %30, align 1, !tbaa !12
  %32 = zext i8 %31 to i64
  %33 = or disjoint i64 %29, %32
  %34 = getelementptr inbounds nuw i8, ptr %15, i64 %33
  store ptr %34, ptr %2, align 8, !tbaa !20
  %35 = getelementptr inbounds nuw i8, ptr %11, i64 8
  %36 = load i8, ptr %35, align 1, !tbaa !12
  %37 = zext i8 %36 to i32
  %38 = shl nuw i32 %37, 24
  %39 = getelementptr inbounds nuw i8, ptr %11, i64 9
  %40 = load i8, ptr %39, align 1, !tbaa !12
  %41 = zext i8 %40 to i32
  %42 = shl nuw nsw i32 %41, 16
  %43 = or disjoint i32 %42, %38
  %44 = getelementptr inbounds nuw i8, ptr %11, i64 10
  %45 = load i8, ptr %44, align 1, !tbaa !12
  %46 = zext i8 %45 to i32
  %47 = shl nuw nsw i32 %46, 8
  %48 = or disjoint i32 %43, %47
  %49 = getelementptr inbounds nuw i8, ptr %11, i64 11
  %50 = load i8, ptr %49, align 1, !tbaa !12
  %51 = zext i8 %50 to i32
  %52 = or disjoint i32 %48, %51
  br label %stbtt_GetGlyphSVG.exit

stbtt_GetGlyphSVG.exit:                           ; preds = %3, %10, %12
  %.0.i = phi i32 [ %52, %12 ], [ 0, %3 ], [ 0, %10 ]
  ret i32 %.0.i
}